target datalayout = "e-m:e-p270:32:32-p271:32:32-p272:64:64-i64:64-i128:128-f80:128-n8:16:32:64-S128"
target triple = "x86_64-pc-linux-gnu"

; Function Attrs: nounwind uwtable
define hidden void @KeccakP1600_ExtractAndAddBytesInLane(ptr noundef %0, i32 noundef %1, ptr noundef %2, ptr noundef %3, i32 noundef %4, i32 noundef %5) #0 {
  %7 = alloca ptr, align 8
  %8 = alloca i32, align 4
  %9 = alloca ptr, align 8
  %10 = alloca ptr, align 8
  %11 = alloca i32, align 4
  %12 = alloca i32, align 4
  %13 = alloca i64, align 8
  %14 = alloca i32, align 4
  %15 = alloca [1 x i64], align 8
  store ptr %0, ptr %7, align 8, !tbaa !4
  store i32 %1, ptr %8, align 4, !tbaa !10
  store ptr %2, ptr %9, align 8, !tbaa !12
  store ptr %3, ptr %10, align 8, !tbaa !12
  store i32 %4, ptr %11, align 4, !tbaa !10
  store i32 %5, ptr %12, align 4, !tbaa !10
  call void @llvm.lifetime.start.p0(i64 8, ptr %13) #4
  %16 = load ptr, ptr %7, align 8, !tbaa !4
  %17 = load i32, ptr %8, align 4, !tbaa !10
  %18 = zext i32 %17 to i64
  %19 = getelementptr inbounds nuw i64, ptr %16, i64 %18
  %20 = load i64, ptr %19, align 8, !tbaa !8
  store i64 %20, ptr %13, align 8, !tbaa !8
  %21 = load i32, ptr %8, align 4, !tbaa !10
  %22 = icmp eq i32 %21, 1
  br i1 %22, label %38, label %23

23:                                               ; preds = %6
  %24 = load i32, ptr %8, align 4, !tbaa !10
  %25 = icmp eq i32 %24, 2
  br i1 %25, label %38, label %26

26:                                               ; preds = %23
  %27 = load i32, ptr %8, align 4, !tbaa !10
  %28 = icmp eq i32 %27, 8
  br i1 %28, label %38, label %29

29:                                               ; preds = %26
  %30 = load i32, ptr %8, align 4, !tbaa !10
  %31 = icmp eq i32 %30, 12
  br i1 %31, label %38, label %32

32:                                               ; preds = %29
  %33 = load i32, ptr %8, align 4, !tbaa !10
  %34 = icmp eq i32 %33, 17
  br i1 %34, label %38, label %35

35:                                               ; preds = %32
  %36 = load i32, ptr %8, align 4, !tbaa !10
  %37 = icmp eq i32 %36, 20
  br i1 %37, label %38, label %41

38:                                               ; preds = %35, %32, %29, %26, %23, %6
  %39 = load i64, ptr %13, align 8, !tbaa !8
  %40 = xor i64 %39, -1
  store i64 %40, ptr %13, align 8, !tbaa !8
  br label %41

41:                                               ; preds = %38, %35
  call void @llvm.lifetime.start.p0(i64 4, ptr %14) #4
  call void @llvm.lifetime.start.p0(i64 8, ptr %15) #4
  %42 = load i64, ptr %13, align 8, !tbaa !8
  %43 = getelementptr inbounds [1 x i64], ptr %15, i64 0, i64 0
  store i64 %42, ptr %43, align 8, !tbaa !8
  store i32 0, ptr %14, align 4, !tbaa !10
  br label %44

44:                                               ; preds = %69, %41
  %45 = load i32, ptr %14, align 4, !tbaa !10
  %46 = load i32, ptr %12, align 4, !tbaa !10
  %47 = icmp ult i32 %45, %46
  br i1 %47, label %48, label %72

48:                                               ; preds = %44
  %49 = load ptr, ptr %9, align 8, !tbaa !12
  %50 = load i32, ptr %14, align 4, !tbaa !10
  %51 = zext i32 %50 to i64
  %52 = getelementptr inbounds nuw i8, ptr %49, i64 %51
  %53 = load i8, ptr %52, align 1, !tbaa !14
  %54 = zext i8 %53 to i32
  %55 = getelementptr inbounds [1 x i64], ptr %15, i64 0, i64 0
  %56 = load i32, ptr %11, align 4, !tbaa !10
  %57 = load i32, ptr %14, align 4, !tbaa !10
  %58 = add i32 %56, %57
  %59 = zext i32 %58 to i64
  %60 = getelementptr inbounds nuw i8, ptr %55, i64 %59
  %61 = load i8, ptr %60, align 1, !tbaa !14
  %62 = zext i8 %61 to i32
  %63 = xor i32 %54, %62
  %64 = trunc i32 %63 to i8
  %65 = load ptr, ptr %10, align 8, !tbaa !12
  %66 = load i32, ptr %14, align 4, !tbaa !10
  %67 = zext i32 %66 to i64
  %68 = getelementptr inbounds nuw i8, ptr %65, i64 %67
  store i8 %64, ptr %68, align 1, !tbaa !14
  br label %69

69:                                               ; preds = %48
  %70 = load i32, ptr %14, align 4, !tbaa !10
  %71 = add i32 %70, 1
  store i32 %71, ptr %14, align 4, !tbaa !10
  br label %44

72:                                               ; preds = %44
  call void @llvm.lifetime.end.p0(i64 8, ptr %15) #4
  call void @llvm.lifetime.end.p0(i64 4, ptr %14) #4
  call void @llvm.lifetime.end.p0(i64 8, ptr %13) #4
  ret void
}