; Function Attrs: nofree norecurse nosync nounwind memory(argmem: readwrite) uwtable
define hidden void @KeccakP1600_ExtractAndAddBytesInLane(ptr noundef readonly captures(none) %0, i32 noundef %1, ptr noundef readonly captures(none) %2, ptr noundef writeonly captures(none) %3, i32 noundef %4, i32 noundef %5) local_unnamed_addr #5 {
  %7 = alloca [1 x i64], align 8
  %8 = zext i32 %1 to i64
  %9 = getelementptr inbounds nuw i64, ptr %0, i64 %8
  %10 = load i64, ptr %9, align 8, !tbaa !4
  switch i32 %1, label %13 [
    i32 20, label %11
    i32 17, label %11
    i32 12, label %11
    i32 8, label %11
    i32 2, label %11
    i32 1, label %11
  ]

11:                                               ; preds = %6, %6, %6, %6, %6, %6
  %12 = xor i64 %10, -1
  br label %13

13:                                               ; preds = %6, %11
  %.027 = phi i64 [ %12, %11 ], [ %10, %6 ]
  call void @llvm.lifetime.start.p0(i64 8, ptr nonnull %7) #8
  store i64 %.027, ptr %7, align 8, !tbaa !4
  %.not = icmp eq i32 %5, 0
  br i1 %.not, label %._crit_edge, label %.lr.ph.preheader

.lr.ph.preheader:                                 ; preds = %13
  %wide.trip.count = zext i32 %5 to i64
  br label %.lr.ph

.lr.ph:                                           ; preds = %.lr.ph.preheader, %.lr.ph
  %indvars.iv = phi i64 [ 0, %.lr.ph.preheader ], [ %indvars.iv.next, %.lr.ph ]
  %14 = getelementptr inbounds nuw i8, ptr %2, i64 %indvars.iv
  %15 = load i8, ptr %14, align 1, !tbaa !8
  %16 = trunc nuw i64 %indvars.iv to i32
  %17 = add i32 %4, %16
  %18 = zext i32 %17 to i64
  %19 = getelementptr inbounds nuw i8, ptr %7, i64 %18
  %20 = load i8, ptr %19, align 1, !tbaa !8
  %21 = xor i8 %20, %15
  %22 = getelementptr inbounds nuw i8, ptr %3, i64 %indvars.iv
  store i8 %21, ptr %22, align 1, !tbaa !8
  %indvars.iv.next = add nuw nsw i64 %indvars.iv, 1
  %exitcond.not = icmp eq i64 %indvars.iv.next, %wide.trip.count
  br i1 %exitcond.not, label %._crit_edge, label %.lr.ph

._crit_edge:                                      ; preds = %.lr.ph, %13
  call void @llvm.lifetime.end.p0(i64 8, ptr nonnull %7) #8
  ret void
}